target datalayout = "e-m:e-p270:32:32-p271:32:32-p272:64:64-i64:64-i128:128-f80:128-n8:16:32:64-S128"
target triple = "x86_64-pc-linux-gnu"

%class.G1RemSet = type { ptr, %class.G1RemSetSummary, ptr, ptr, ptr }
%class.G1RemSetSummary = type { i64, ptr }
%class.G1RemSetScanState = type { i64, ptr, i32, i8, ptr, i64, i8, ptr, ptr, ptr }
%"class.G1RemSetScanState::G1DirtyRegions" = type { ptr, i32, i64, ptr }

; Function Attrs: mustprogress nounwind uwtable
define linkonce_odr hidden noundef i32 @_ZNK17G1RemSetScanState14G1DirtyRegions2atEj(ptr noundef nonnull align 8 dereferenceable(32) %0, i32 noundef %1) #1 comdat align 2 {
  %3 = alloca ptr, align 8
  %4 = alloca i32, align 4
  store ptr %0, ptr %3, align 8
  store i32 %1, ptr %4, align 4
  %5 = load ptr, ptr %3, align 8
  %6 = getelementptr inbounds %"class.G1RemSetScanState::G1DirtyRegions", ptr %5, i32 0, i32 0
  %7 = load ptr, ptr %6, align 8
  %8 = load i32, ptr %4, align 4
  %9 = zext i32 %8 to i64
  %10 = getelementptr inbounds i32, ptr %7, i64 %9
  %11 = load i32, ptr %10, align 4
  ret i32 %11
}

; Function Attrs: mustprogress nounwind uwtable
define linkonce_odr hidden noundef i32 @_ZNK17G1RemSetScanState14G1DirtyRegions4sizeEv(ptr noundef nonnull align 8 dereferenceable(32) %0) #1 comdat align 2 {
  %2 = alloca ptr, align 8
  store ptr %0, ptr %2, align 8
  %3 = load ptr, ptr %2, align 8
  %4 = getelementptr inbounds %"class.G1RemSetScanState::G1DirtyRegions", ptr %3, i32 0, i32 1
  %5 = load i32, ptr %4, align 8
  ret i32 %5
}

; Function Attrs: mustprogress nounwind uwtable
define linkonce_odr hidden void @_ZN17G1RemSetScanState14G1DirtyRegions5resetEv(ptr noundef nonnull align 8 dereferenceable(32) %0) #1 comdat align 2 {
  %2 = alloca ptr, align 8
  store ptr %0, ptr %2, align 8
  %3 = load ptr, ptr %2, align 8
  %4 = getelementptr inbounds %"class.G1RemSetScanState::G1DirtyRegions", ptr %3, i32 0, i32 1
  store i32 0, ptr %4, align 8
  %5 = getelementptr inbounds %"class.G1RemSetScanState::G1DirtyRegions", ptr %3, i32 0, i32 3
  %6 = load ptr, ptr %5, align 8
  %7 = getelementptr inbounds %"class.G1RemSetScanState::G1DirtyRegions", ptr %3, i32 0, i32 2
  %8 = load i64, ptr %7, align 8
  %9 = mul i64 %8, 1
  call void @llvm.memset.p0.i64(ptr align 1 %6, i8 0, i64 %9, i1 false)
  ret void
}

; Function Attrs: mustprogress nounwind uwtable
define linkonce_odr hidden void @_ZN17G1RemSetScanState14G1DirtyRegions5mergeEPKS0_(ptr noundef nonnull align 8 dereferenceable(32) %0, ptr noundef %1) #1 comdat align 2 {
  %3 = alloca ptr, align 8
  %4 = alloca ptr, align 8
  %5 = alloca i32, align 4
  %6 = alloca i32, align 4
  store ptr %0, ptr %3, align 8
  store ptr %1, ptr %4, align 8
  %7 = load ptr, ptr %3, align 8
  store i32 0, ptr %5, align 4
  br label %8

8:                                                ; preds = %39, %2
  %9 = load i32, ptr %5, align 4
  %10 = load ptr, ptr %4, align 8
  %11 = call noundef i32 @_ZNK17G1RemSetScanState14G1DirtyRegions4sizeEv(ptr noundef nonnull align 8 dereferenceable(32) %10)
  %12 = icmp ult i32 %9, %11
  br i1 %12, label %13, label %42

13:                                               ; preds = %8
  %14 = load ptr, ptr %4, align 8
  %15 = load i32, ptr %5, align 4
  %16 = call noundef i32 @_ZNK17G1RemSetScanState14G1DirtyRegions2atEj(ptr noundef nonnull align 8 dereferenceable(32) %14, i32 noundef %15)
  store i32 %16, ptr %6, align 4
  %17 = getelementptr inbounds %"class.G1RemSetScanState::G1DirtyRegions", ptr %7, i32 0, i32 3
  %18 = load ptr, ptr %17, align 8
  %19 = load i32, ptr %6, align 4
  %20 = zext i32 %19 to i64
  %21 = getelementptr inbounds i8, ptr %18, i64 %20
  %22 = load i8, ptr %21, align 1
  %23 = trunc i8 %22 to i1
  br i1 %23, label %38, label %24

24:                                               ; preds = %13
  %25 = load i32, ptr %6, align 4
  %26 = getelementptr inbounds %"class.G1RemSetScanState::G1DirtyRegions", ptr %7, i32 0, i32 0
  %27 = load ptr, ptr %26, align 8
  %28 = getelementptr inbounds %"class.G1RemSetScanState::G1DirtyRegions", ptr %7, i32 0, i32 1
  %29 = load i32, ptr %28, align 8
  %30 = add i32 %29, 1
  store i32 %30, ptr %28, align 8
  %31 = zext i32 %29 to i64
  %32 = getelementptr inbounds i32, ptr %27, i64 %31
  store i32 %25, ptr %32, align 4
  %33 = getelementptr inbounds %"class.G1RemSetScanState::G1DirtyRegions", ptr %7, i32 0, i32 3
  %34 = load ptr, ptr %33, align 8
  %35 = load i32, ptr %6, align 4
  %36 = zext i32 %35 to i64
  %37 = getelementptr inbounds i8, ptr %34, i64 %36
  store i8 1, ptr %37, align 1
  br label %38

38:                                               ; preds = %24, %13
  br label %39

39:                                               ; preds = %38
  %40 = load i32, ptr %5, align 4
  %41 = add i32 %40, 1
  store i32 %41, ptr %5, align 4
  br label %8, !llvm.loop !65

42:                                               ; preds = %8
  ret void
}

; Function Attrs: mustprogress nounwind uwtable
define linkonce_odr hidden void @_ZN17G1RemSetScanState19complete_evac_phaseEb(ptr noundef nonnull align 8 dereferenceable(72) %0, i1 noundef zeroext %1) #1 comdat align 2 {
  %3 = alloca ptr, align 8
  %4 = alloca i8, align 1
  store ptr %0, ptr %3, align 8
  %5 = zext i1 %1 to i8
  store i8 %5, ptr %4, align 1
  %6 = load ptr, ptr %3, align 8
  %7 = load i8, ptr %4, align 1
  %8 = trunc i8 %7 to i1
  br i1 %8, label %9, label %14

9:                                                ; preds = %2
  %10 = getelementptr inbounds %class.G1RemSetScanState, ptr %6, i32 0, i32 7
  %11 = load ptr, ptr %10, align 8
  %12 = getelementptr inbounds %class.G1RemSetScanState, ptr %6, i32 0, i32 8
  %13 = load ptr, ptr %12, align 8
  call void @_ZN17G1RemSetScanState14G1DirtyRegions5mergeEPKS0_(ptr noundef nonnull align 8 dereferenceable(32) %11, ptr noundef %13)
  br label %14

14:                                               ; preds = %9, %2
  %15 = getelementptr inbounds %class.G1RemSetScanState, ptr %6, i32 0, i32 8
  %16 = load ptr, ptr %15, align 8
  call void @_ZN17G1RemSetScanState14G1DirtyRegions5resetEv(ptr noundef nonnull align 8 dereferenceable(32) %16)
  ret void
}

; Function Attrs: mustprogress nounwind uwtable
define hidden void @_ZN8G1RemSet19complete_evac_phaseEb(ptr noundef nonnull align 8 dereferenceable(48) %0, i1 noundef zeroext %1) #1 align 2 {
  %3 = alloca ptr, align 8
  %4 = alloca i8, align 1
  store ptr %0, ptr %3, align 8
  %5 = zext i1 %1 to i8
  store i8 %5, ptr %4, align 1
  %6 = load ptr, ptr %3, align 8
  %7 = getelementptr inbounds %class.G1RemSet, ptr %6, i32 0, i32 0
  %8 = load ptr, ptr %7, align 8
  %9 = load i8, ptr %4, align 1
  %10 = trunc i8 %9 to i1
  call void @_ZN17G1RemSetScanState19complete_evac_phaseEb(ptr noundef nonnull align 8 dereferenceable(72) %8, i1 noundef zeroext %10)
  ret void
}