; Function Attrs: mustprogress nofree norecurse nosync nounwind memory(readwrite, inaccessiblemem: none) uwtable
define hidden void @_ZN8G1RemSet19complete_evac_phaseEb(ptr nocapture noundef nonnull readonly align 8 dereferenceable(48) %0, i1 noundef zeroext %1) local_unnamed_addr #4 align 2 {
  %3 = load ptr, ptr %0, align 8
  br i1 %1, label %4, label %_ZN17G1RemSetScanState19complete_evac_phaseEb.exit

4:                                                ; preds = %2
  %5 = getelementptr inbounds i8, ptr %3, i64 48
  %6 = load ptr, ptr %5, align 8
  %7 = getelementptr inbounds i8, ptr %3, i64 56
  %8 = load ptr, ptr %7, align 8
  %9 = getelementptr inbounds i8, ptr %8, i64 8
  %10 = load i32, ptr %9, align 8
  %.not.i.i = icmp eq i32 %10, 0
  br i1 %.not.i.i, label %_ZN17G1RemSetScanState19complete_evac_phaseEb.exit, label %.lr.ph.i.i

.lr.ph.i.i:                                       ; preds = %4
  %11 = getelementptr inbounds i8, ptr %6, i64 24
  %12 = getelementptr inbounds i8, ptr %6, i64 8
  br label %13

13:                                               ; preds = %31, %.lr.ph.i.i
  %14 = phi i32 [ %10, %.lr.ph.i.i ], [ %32, %31 ]
  %indvars.iv.i.i = phi i64 [ 0, %.lr.ph.i.i ], [ %indvars.iv.next.i.i, %31 ]
  %15 = load ptr, ptr %8, align 8
  %16 = getelementptr inbounds i32, ptr %15, i64 %indvars.iv.i.i
  %17 = load i32, ptr %16, align 4
  %18 = load ptr, ptr %11, align 8
  %19 = zext i32 %17 to i64
  %20 = getelementptr inbounds i8, ptr %18, i64 %19
  %21 = load i8, ptr %20, align 1
  %22 = trunc i8 %21 to i1
  br i1 %22, label %31, label %23

23:                                               ; preds = %13
  %24 = load ptr, ptr %6, align 8
  %25 = load i32, ptr %12, align 8
  %26 = add i32 %25, 1
  store i32 %26, ptr %12, align 8
  %27 = zext i32 %25 to i64
  %28 = getelementptr inbounds i32, ptr %24, i64 %27
  store i32 %17, ptr %28, align 4
  %29 = load ptr, ptr %11, align 8
  %30 = getelementptr inbounds i8, ptr %29, i64 %19
  store i8 1, ptr %30, align 1
  %.pre.i.i = load i32, ptr %9, align 8
  br label %31

31:                                               ; preds = %23, %13
  %32 = phi i32 [ %14, %13 ], [ %.pre.i.i, %23 ]
  %indvars.iv.next.i.i = add nuw nsw i64 %indvars.iv.i.i, 1
  %33 = zext i32 %32 to i64
  %34 = icmp ult i64 %indvars.iv.next.i.i, %33
  br i1 %34, label %13, label %_ZN17G1RemSetScanState19complete_evac_phaseEb.exit, !llvm.loop !16

_ZN17G1RemSetScanState19complete_evac_phaseEb.exit: ; preds = %31, %2, %4
  %35 = getelementptr inbounds i8, ptr %3, i64 56
  %36 = load ptr, ptr %35, align 8
  %37 = getelementptr inbounds i8, ptr %36, i64 8
  store i32 0, ptr %37, align 8
  %38 = getelementptr inbounds i8, ptr %36, i64 24
  %39 = load ptr, ptr %38, align 8
  %40 = getelementptr inbounds i8, ptr %36, i64 16
  %41 = load i64, ptr %40, align 8
  tail call void @llvm.memset.p0.i64(ptr align 1 %39, i8 0, i64 %41, i1 false)
  ret void
}